target datalayout = "e-m:e-p270:32:32-p271:32:32-p272:64:64-i64:64-i128:128-f80:128-n8:16:32:64-S128"
target triple = "x86_64-pc-linux-gnu"

%struct.rust_demangler = type { ptr, i64, ptr, ptr, i64, i8, i8, i8, i32, i64 }

; Function Attrs: nounwind
define internal signext i8 @peek(ptr noundef %0) #0 {
  %2 = alloca i8, align 1
  %3 = alloca ptr, align 8
  store ptr %0, ptr %3, align 8, !tbaa !30
  %4 = load ptr, ptr %3, align 8, !tbaa !30
  %5 = getelementptr inbounds nuw %struct.rust_demangler, ptr %4, i32 0, i32 4
  %6 = load i64, ptr %5, align 8, !tbaa !18
  %7 = load ptr, ptr %3, align 8, !tbaa !30
  %8 = getelementptr inbounds nuw %struct.rust_demangler, ptr %7, i32 0, i32 1
  %9 = load i64, ptr %8, align 8, !tbaa !15
  %10 = icmp ult i64 %6, %9
  br i1 %10, label %11, label %20

11:                                               ; preds = %1
  %12 = load ptr, ptr %3, align 8, !tbaa !30
  %13 = getelementptr inbounds nuw %struct.rust_demangler, ptr %12, i32 0, i32 0
  %14 = load ptr, ptr %13, align 8, !tbaa !11
  %15 = load ptr, ptr %3, align 8, !tbaa !30
  %16 = getelementptr inbounds nuw %struct.rust_demangler, ptr %15, i32 0, i32 4
  %17 = load i64, ptr %16, align 8, !tbaa !18
  %18 = getelementptr inbounds nuw i8, ptr %14, i64 %17
  %19 = load i8, ptr %18, align 1, !tbaa !24
  store i8 %19, ptr %2, align 1
  br label %21

20:                                               ; preds = %1
  store i8 0, ptr %2, align 1
  br label %21

21:                                               ; preds = %20, %11
  %22 = load i8, ptr %2, align 1
  ret i8 %22
}

; Function Attrs: nounwind
define internal signext i8 @next(ptr noundef %0) #0 {
  %2 = alloca i8, align 1
  %3 = alloca ptr, align 8
  %4 = alloca i8, align 1
  %5 = alloca i32, align 4
  store ptr %0, ptr %3, align 8, !tbaa !30
  call void @llvm.lifetime.start.p0(i64 1, ptr %4) #8
  %6 = load ptr, ptr %3, align 8, !tbaa !30
  %7 = call signext i8 @peek(ptr noundef %6)
  store i8 %7, ptr %4, align 1, !tbaa !24
  br label %8

8:                                                ; preds = %1
  %9 = load i8, ptr %4, align 1, !tbaa !24
  %10 = icmp ne i8 %9, 0
  br i1 %10, label %17, label %11

11:                                               ; preds = %8
  br label %12

12:                                               ; preds = %11
  %13 = load ptr, ptr %3, align 8, !tbaa !30
  %14 = getelementptr inbounds nuw %struct.rust_demangler, ptr %13, i32 0, i32 5
  store i8 1, ptr %14, align 8, !tbaa !19
  store i8 0, ptr %2, align 1
  store i32 1, ptr %5, align 4
  br label %25

15:                                               ; No predecessors!
  br label %16

16:                                               ; preds = %15
  br label %17

17:                                               ; preds = %16, %8
  br label %18

18:                                               ; preds = %17
  br label %19

19:                                               ; preds = %18
  %20 = load ptr, ptr %3, align 8, !tbaa !30
  %21 = getelementptr inbounds nuw %struct.rust_demangler, ptr %20, i32 0, i32 4
  %22 = load i64, ptr %21, align 8, !tbaa !18
  %23 = add i64 %22, 1
  store i64 %23, ptr %21, align 8, !tbaa !18
  %24 = load i8, ptr %4, align 1, !tbaa !24
  store i8 %24, ptr %2, align 1
  store i32 1, ptr %5, align 4
  br label %25

25:                                               ; preds = %19, %12
  call void @llvm.lifetime.end.p0(i64 1, ptr %4) #8
  %26 = load i8, ptr %2, align 1
  ret i8 %26
}

; Function Attrs: nounwind
define internal zeroext i1 @eat(ptr noundef %0, i8 noundef signext %1) #0 {
  %3 = alloca i1, align 1
  %4 = alloca ptr, align 8
  %5 = alloca i8, align 1
  store ptr %0, ptr %4, align 8, !tbaa !30
  store i8 %1, ptr %5, align 1, !tbaa !24
  %6 = load ptr, ptr %4, align 8, !tbaa !30
  %7 = call signext i8 @peek(ptr noundef %6)
  %8 = sext i8 %7 to i32
  %9 = load i8, ptr %5, align 1, !tbaa !24
  %10 = sext i8 %9 to i32
  %11 = icmp eq i32 %8, %10
  br i1 %11, label %12, label %17

12:                                               ; preds = %2
  %13 = load ptr, ptr %4, align 8, !tbaa !30
  %14 = getelementptr inbounds nuw %struct.rust_demangler, ptr %13, i32 0, i32 4
  %15 = load i64, ptr %14, align 8, !tbaa !18
  %16 = add i64 %15, 1
  store i64 %16, ptr %14, align 8, !tbaa !18
  store i1 true, ptr %3, align 1
  br label %18

17:                                               ; preds = %2
  store i1 false, ptr %3, align 1
  br label %18

18:                                               ; preds = %17, %12
  %19 = load i1, ptr %3, align 1
  ret i1 %19
}

; Function Attrs: nounwind
define internal i64 @parse_integer_62(ptr noundef %0) #0 {
  %2 = alloca i64, align 8
  %3 = alloca ptr, align 8
  %4 = alloca i64, align 8
  %5 = alloca i8, align 1
  %6 = alloca i32, align 4
  store ptr %0, ptr %3, align 8, !tbaa !30
  %7 = load ptr, ptr %3, align 8, !tbaa !30
  %8 = call zeroext i1 @eat(ptr noundef %7, i8 noundef signext 95)
  br i1 %8, label %9, label %10

9:                                                ; preds = %1
  store i64 0, ptr %2, align 8
  br label %82

10:                                               ; preds = %1
  call void @llvm.lifetime.start.p0(i64 8, ptr %4) #8
  store i64 0, ptr %4, align 8, !tbaa !33
  br label %11

11:                                               ; preds = %77, %10
  %12 = load ptr, ptr %3, align 8, !tbaa !30
  %13 = call zeroext i1 @eat(ptr noundef %12, i8 noundef signext 95)
  %14 = xor i1 %13, true
  br i1 %14, label %15, label %78

15:                                               ; preds = %11
  call void @llvm.lifetime.start.p0(i64 1, ptr %5) #8
  %16 = load ptr, ptr %3, align 8, !tbaa !30
  %17 = call signext i8 @next(ptr noundef %16)
  store i8 %17, ptr %5, align 1, !tbaa !24
  %18 = load i64, ptr %4, align 8, !tbaa !33
  %19 = mul i64 %18, 62
  store i64 %19, ptr %4, align 8, !tbaa !33
  %20 = load i8, ptr %5, align 1, !tbaa !24
  %21 = sext i8 %20 to i32
  %22 = icmp sge i32 %21, 48
  br i1 %22, label %23, label %34

23:                                               ; preds = %15
  %24 = load i8, ptr %5, align 1, !tbaa !24
  %25 = sext i8 %24 to i32
  %26 = icmp sle i32 %25, 57
  br i1 %26, label %27, label %34

27:                                               ; preds = %23
  %28 = load i8, ptr %5, align 1, !tbaa !24
  %29 = sext i8 %28 to i32
  %30 = sub nsw i32 %29, 48
  %31 = sext i32 %30 to i64
  %32 = load i64, ptr %4, align 8, !tbaa !33
  %33 = add i64 %32, %31
  store i64 %33, ptr %4, align 8, !tbaa !33
  br label %74

34:                                               ; preds = %23, %15
  %35 = load i8, ptr %5, align 1, !tbaa !24
  %36 = sext i8 %35 to i32
  %37 = icmp sge i32 %36, 97
  br i1 %37, label %38, label %50

38:                                               ; preds = %34
  %39 = load i8, ptr %5, align 1, !tbaa !24
  %40 = sext i8 %39 to i32
  %41 = icmp sle i32 %40, 122
  br i1 %41, label %42, label %50

42:                                               ; preds = %38
  %43 = load i8, ptr %5, align 1, !tbaa !24
  %44 = sext i8 %43 to i32
  %45 = sub nsw i32 %44, 97
  %46 = add nsw i32 10, %45
  %47 = sext i32 %46 to i64
  %48 = load i64, ptr %4, align 8, !tbaa !33
  %49 = add i64 %48, %47
  store i64 %49, ptr %4, align 8, !tbaa !33
  br label %73

50:                                               ; preds = %38, %34
  %51 = load i8, ptr %5, align 1, !tbaa !24
  %52 = sext i8 %51 to i32
  %53 = icmp sge i32 %52, 65
  br i1 %53, label %54, label %66

54:                                               ; preds = %50
  %55 = load i8, ptr %5, align 1, !tbaa !24
  %56 = sext i8 %55 to i32
  %57 = icmp sle i32 %56, 90
  br i1 %57, label %58, label %66

58:                                               ; preds = %54
  %59 = load i8, ptr %5, align 1, !tbaa !24
  %60 = sext i8 %59 to i32
  %61 = sub nsw i32 %60, 65
  %62 = add nsw i32 36, %61
  %63 = sext i32 %62 to i64
  %64 = load i64, ptr %4, align 8, !tbaa !33
  %65 = add i64 %64, %63
  store i64 %65, ptr %4, align 8, !tbaa !33
  br label %72

66:                                               ; preds = %54, %50
  br label %67

67:                                               ; preds = %66
  %68 = load ptr, ptr %3, align 8, !tbaa !30
  %69 = getelementptr inbounds nuw %struct.rust_demangler, ptr %68, i32 0, i32 5
  store i8 1, ptr %69, align 8, !tbaa !19
  store i64 0, ptr %2, align 8
  store i32 1, ptr %6, align 4
  br label %75

70:                                               ; No predecessors!
  br label %71

71:                                               ; preds = %70
  br label %72

72:                                               ; preds = %71, %58
  br label %73

73:                                               ; preds = %72, %42
  br label %74

74:                                               ; preds = %73, %27
  store i32 0, ptr %6, align 4
  br label %75

75:                                               ; preds = %74, %67
  call void @llvm.lifetime.end.p0(i64 1, ptr %5) #8
  %76 = load i32, ptr %6, align 4
  switch i32 %76, label %81 [
    i32 0, label %77
  ]

77:                                               ; preds = %75
  br label %11, !llvm.loop !67

78:                                               ; preds = %11
  %79 = load i64, ptr %4, align 8, !tbaa !33
  %80 = add i64 %79, 1
  store i64 %80, ptr %2, align 8
  store i32 1, ptr %6, align 4
  br label %81

81:                                               ; preds = %78, %75
  call void @llvm.lifetime.end.p0(i64 8, ptr %4) #8
  br label %82

82:                                               ; preds = %81, %9
  %83 = load i64, ptr %2, align 8
  ret i64 %83
}