; Function Attrs: nofree norecurse nosync nounwind memory(read, argmem: readwrite, inaccessiblemem: none)
define internal fastcc i64 @parse_integer_62(ptr noundef nonnull captures(none) %0) unnamed_addr #4 {
  %2 = getelementptr inbounds nuw i8, ptr %0, i64 32
  %3 = load i64, ptr %2, align 8, !tbaa !14
  %4 = getelementptr inbounds nuw i8, ptr %0, i64 8
  %5 = load i64, ptr %4, align 8, !tbaa !3
  %6 = icmp ult i64 %3, %5
  br i1 %6, label %peek.exit.i, label %eat.exit

peek.exit.i:                                      ; preds = %1
  %7 = load ptr, ptr %0, align 8, !tbaa !19
  %8 = getelementptr inbounds nuw i8, ptr %7, i64 %3
  %9 = load i8, ptr %8, align 1, !tbaa !21
  %10 = icmp eq i8 %9, 95
  br i1 %10, label %eat.exit.thread, label %eat.exit

eat.exit.thread:                                  ; preds = %peek.exit.i
  %11 = add nuw i64 %3, 1
  store i64 %11, ptr %2, align 8, !tbaa !14
  br label %36

eat.exit:                                         ; preds = %1, %peek.exit.i
  %12 = icmp ult i64 %3, %5
  br i1 %12, label %peek.exit.i33.preheader, label %.thread45

peek.exit.i33.preheader:                          ; preds = %eat.exit
  %13 = load ptr, ptr %0, align 8, !tbaa !19
  br label %peek.exit.i33

peek.exit.i33:                                    ; preds = %peek.exit.i33.preheader, %30
  %.02862 = phi i64 [ %.129, %30 ], [ 0, %peek.exit.i33.preheader ]
  %14 = phi i64 [ %21, %30 ], [ %3, %peek.exit.i33.preheader ]
  %15 = getelementptr inbounds nuw i8, ptr %13, i64 %14
  %16 = load i8, ptr %15, align 1, !tbaa !21
  %17 = icmp eq i8 %16, 95
  br i1 %17, label %33, label %peek.exit.i35

peek.exit.i35:                                    ; preds = %peek.exit.i33
  %18 = load ptr, ptr %0, align 8, !tbaa !19
  %19 = getelementptr inbounds nuw i8, ptr %18, i64 %14
  %20 = load i8, ptr %19, align 1, !tbaa !21
  %.not.i = icmp eq i8 %20, 0
  br i1 %.not.i, label %.thread45, label %next.exit

next.exit:                                        ; preds = %peek.exit.i35
  %21 = add nuw i64 %14, 1
  store i64 %21, ptr %2, align 8, !tbaa !14
  %22 = mul i64 %.02862, 62
  %23 = sext i8 %20 to i64
  %24 = add i8 %20, -48
  %or.cond = icmp ult i8 %24, 10
  br i1 %or.cond, label %30, label %25

25:                                               ; preds = %next.exit
  %26 = add i8 %20, -97
  %or.cond5 = icmp ult i8 %26, 26
  br i1 %or.cond5, label %30, label %27

27:                                               ; preds = %25
  %28 = add i8 %20, -65
  %or.cond8 = icmp ult i8 %28, 26
  br i1 %or.cond8, label %30, label %.thread45

.thread45:                                        ; preds = %30, %peek.exit.i35, %27, %eat.exit
  %29 = getelementptr inbounds nuw i8, ptr %0, i64 40
  store i8 1, ptr %29, align 8, !tbaa !15
  br label %36

30:                                               ; preds = %27, %25, %next.exit
  %.sink = phi i64 [ 4294967248, %next.exit ], [ 4294967209, %25 ], [ 4294967267, %27 ]
  %31 = add nsw i64 %.sink, %23
  %.pn = and i64 %31, 4294967295
  %.129 = add i64 %22, %.pn
  %32 = icmp ult i64 %21, %5
  br i1 %32, label %peek.exit.i33, label %.thread45, !llvm.loop !33

33:                                               ; preds = %peek.exit.i33
  %34 = add nuw i64 %14, 1
  store i64 %34, ptr %2, align 8, !tbaa !14
  %35 = add i64 %.02862, 1
  br label %36

36:                                               ; preds = %.thread45, %eat.exit.thread, %33
  %.027 = phi i64 [ %35, %33 ], [ 0, %eat.exit.thread ], [ 0, %.thread45 ]
  ret i64 %.027
}